target datalayout = "e-m:e-p270:32:32-p271:32:32-p272:64:64-i64:64-i128:128-f80:128-n8:16:32:64-S128"
target triple = "x86_64-pc-linux-gnu"

%"class.cv::Mat" = type { i32, i32, i32, i32, ptr, ptr, ptr, ptr, ptr, ptr, %"struct.cv::MatSize", %"struct.cv::MatStep" }
%"struct.cv::MatSize" = type { ptr }
%"struct.cv::MatStep" = type { ptr, [2 x i64] }
%"class.cv::ximgproc::SuperpixelLSCImpl" = type { %"class.cv::ximgproc::SuperpixelLSC", i32, i32, i32, i32, i32, i32, float, i32, float, float, i32, float, %"class.std::vector", %"class.std::vector.4", %"class.std::vector.4", %"class.cv::Mat", %"class.cv::Mat" }
%"class.cv::ximgproc::SuperpixelLSC" = type { %"class.cv::Algorithm" }
%"class.cv::Algorithm" = type { ptr }
%"class.std::vector" = type { %"struct.std::_Vector_base" }
%"struct.std::_Vector_base" = type { %"struct.std::_Vector_base<cv::Mat, std::allocator<cv::Mat>>::_Vector_impl" }
%"struct.std::_Vector_base<cv::Mat, std::allocator<cv::Mat>>::_Vector_impl" = type { %"struct.std::_Vector_base<cv::Mat, std::allocator<cv::Mat>>::_Vector_impl_data" }
%"struct.std::_Vector_base<cv::Mat, std::allocator<cv::Mat>>::_Vector_impl_data" = type { ptr, ptr, ptr }
%"class.std::vector.4" = type { %"struct.std::_Vector_base.5" }
%"struct.std::_Vector_base.5" = type { %"struct.std::_Vector_base<float, std::allocator<float>>::_Vector_impl" }
%"struct.std::_Vector_base<float, std::allocator<float>>::_Vector_impl" = type { %"struct.std::_Vector_base<float, std::allocator<float>>::_Vector_impl_data" }
%"struct.std::_Vector_base<float, std::allocator<float>>::_Vector_impl_data" = type { ptr, ptr, ptr }

; Function Attrs: mustprogress uwtable
define hidden void @_ZN2cv8ximgproc17SuperpixelLSCImpl24enforceLabelConnectivityEi(ptr noundef nonnull align 8 dereferenceable(320) %0, i32 noundef %1) unnamed_addr #4 align 2 {
  %3 = alloca ptr, align 8
  %4 = alloca i32, align 4
  %5 = alloca i32, align 4
  store ptr %0, ptr %3, align 8, !tbaa !20
  store i32 %1, ptr %4, align 4, !tbaa !8
  %6 = load ptr, ptr %3, align 8
  call void @llvm.lifetime.start.p0(i64 4, ptr %5) #3
  %7 = getelementptr inbounds nuw %"class.cv::ximgproc::SuperpixelLSCImpl", ptr %6, i32 0, i32 1
  %8 = load i32, ptr %7, align 8, !tbaa !47
  %9 = getelementptr inbounds nuw %"class.cv::ximgproc::SuperpixelLSCImpl", ptr %6, i32 0, i32 2
  %10 = load i32, ptr %9, align 4, !tbaa !49
  %11 = mul nsw i32 %8, %10
  %12 = getelementptr inbounds nuw %"class.cv::ximgproc::SuperpixelLSCImpl", ptr %6, i32 0, i32 8
  %13 = load i32, ptr %12, align 4, !tbaa !78
  %14 = getelementptr inbounds nuw %"class.cv::ximgproc::SuperpixelLSCImpl", ptr %6, i32 0, i32 11
  %15 = load i32, ptr %14, align 8, !tbaa !76
  %16 = mul nsw i32 %13, %15
  %17 = sdiv i32 %11, %16
  store i32 %17, ptr %5, align 4, !tbaa !8
  %18 = load i32, ptr %4, align 4, !tbaa !8
  call void @_ZN2cv8ximgproc17SuperpixelLSCImpl27PreEnforceLabelConnectivityEi(ptr noundef nonnull align 8 dereferenceable(320) %6, i32 noundef %18)
  %19 = load i32, ptr %5, align 4, !tbaa !8
  call void @_ZN2cv8ximgproc17SuperpixelLSCImpl28PostEnforceLabelConnectivityEi(ptr noundef nonnull align 8 dereferenceable(320) %6, i32 noundef %19)
  call void @_ZN2cv8ximgproc17SuperpixelLSCImpl16countSuperpixelsEv(ptr noundef nonnull align 8 dereferenceable(320) %6)
  call void @llvm.lifetime.end.p0(i64 4, ptr %5) #3
  ret void
}