; Function Attrs: mustprogress uwtable
define hidden void @_ZN2cv8ximgproc17SuperpixelLSCImpl24enforceLabelConnectivityEi(ptr noundef nonnull align 8 dereferenceable(320) %0, i32 noundef %1) unnamed_addr #3 align 2 {
  %3 = getelementptr inbounds nuw i8, ptr %0, i64 8
  %4 = load i32, ptr %3, align 8, !tbaa !60
  %5 = getelementptr inbounds nuw i8, ptr %0, i64 12
  %6 = load i32, ptr %5, align 4, !tbaa !61
  %7 = mul nsw i32 %6, %4
  %8 = getelementptr inbounds nuw i8, ptr %0, i64 36
  %9 = load i32, ptr %8, align 4, !tbaa !72
  %10 = getelementptr inbounds nuw i8, ptr %0, i64 48
  %11 = load i32, ptr %10, align 8, !tbaa !70
  %12 = mul nsw i32 %11, %9
  %13 = sdiv i32 %7, %12
  tail call void @_ZN2cv8ximgproc17SuperpixelLSCImpl27PreEnforceLabelConnectivityEi(ptr noundef nonnull align 8 dereferenceable(320) %0, i32 noundef %1)
  tail call void @_ZN2cv8ximgproc17SuperpixelLSCImpl28PostEnforceLabelConnectivityEi(ptr noundef nonnull align 8 dereferenceable(320) %0, i32 noundef %13)
  tail call void @_ZN2cv8ximgproc17SuperpixelLSCImpl16countSuperpixelsEv(ptr noundef nonnull align 8 dereferenceable(320) %0)
  ret void
}